target datalayout = "e-m:e-p270:32:32-p271:32:32-p272:64:64-i64:64-i128:128-f80:128-n8:16:32:64-S128"
target triple = "x86_64-pc-linux-gnu"

%"class.ade::Handle" = type { %"class.std::weak_ptr" }
%"class.std::weak_ptr" = type { %"class.std::__weak_ptr" }
%"class.std::__weak_ptr" = type { ptr, %"class.std::__weak_count" }
%"class.std::__weak_count" = type { ptr }
%"class.std::vector" = type { %"struct.std::_Vector_base" }
%"struct.std::_Vector_base" = type { %"struct.std::_Vector_base<int, std::allocator<int>>::_Vector_impl" }
%"struct.std::_Vector_base<int, std::allocator<int>>::_Vector_impl" = type { %"struct.std::_Vector_base<int, std::allocator<int>>::_Vector_impl_data" }
%"struct.std::_Vector_base<int, std::allocator<int>>::_Vector_impl_data" = type { ptr, ptr, ptr }
%"class.std::__cxx11::basic_string" = type { %"struct.std::__cxx11::basic_string<char>::_Alloc_hider", i64, %union.anon }
%"struct.std::__cxx11::basic_string<char>::_Alloc_hider" = type { ptr }
%union.anon = type { i64, [8 x i8] }
%"struct.cv::gimpl::FluidAgent" = type { ptr, %"class.cv::GFluidKernel", %"class.ade::Handle", %"class.std::__cxx11::basic_string", %"class.std::vector", %"class.std::vector", %"class.std::vector.16", %"class.std::vector.21", %"class.std::vector.26", i32, i32 }
%"class.cv::GFluidKernel" = type { i32, i32, i8, %"class.std::function", %"class.std::function.3", %"class.std::function.5", %"class.std::function.7", %"class.std::function.10" }
%"class.std::function" = type { %"class.std::_Function_base", ptr }
%"class.std::_Function_base" = type { %"union.std::_Any_data", ptr }
%"union.std::_Any_data" = type { %"union.std::_Nocopy_types" }
%"union.std::_Nocopy_types" = type { { i64, i64 } }
%"class.std::function.3" = type { %"class.std::_Function_base", ptr }
%"class.std::function.5" = type { %"class.std::_Function_base", ptr }
%"class.std::function.7" = type { %"class.std::_Function_base", ptr }
%"class.std::function.10" = type { %"class.std::_Function_base", ptr }
%"class.std::vector.16" = type { %"struct.std::_Vector_base.17" }
%"struct.std::_Vector_base.17" = type { %"struct.std::_Vector_base<cv::GArg, std::allocator<cv::GArg>>::_Vector_impl" }
%"struct.std::_Vector_base<cv::GArg, std::allocator<cv::GArg>>::_Vector_impl" = type { %"struct.std::_Vector_base<cv::GArg, std::allocator<cv::GArg>>::_Vector_impl_data" }
%"struct.std::_Vector_base<cv::GArg, std::allocator<cv::GArg>>::_Vector_impl_data" = type { ptr, ptr, ptr }
%"class.std::vector.21" = type { %"struct.std::_Vector_base.22" }
%"struct.std::_Vector_base.22" = type { %"struct.std::_Vector_base<cv::gapi::fluid::View, std::allocator<cv::gapi::fluid::View>>::_Vector_impl" }
%"struct.std::_Vector_base<cv::gapi::fluid::View, std::allocator<cv::gapi::fluid::View>>::_Vector_impl" = type { %"struct.std::_Vector_base<cv::gapi::fluid::View, std::allocator<cv::gapi::fluid::View>>::_Vector_impl_data" }
%"struct.std::_Vector_base<cv::gapi::fluid::View, std::allocator<cv::gapi::fluid::View>>::_Vector_impl_data" = type { ptr, ptr, ptr }
%"class.std::vector.26" = type { %"struct.std::_Vector_base.27" }
%"struct.std::_Vector_base.27" = type { %"struct.std::_Vector_base<cv::gapi::fluid::Buffer *, std::allocator<cv::gapi::fluid::Buffer *>>::_Vector_impl" }
%"struct.std::_Vector_base<cv::gapi::fluid::Buffer *, std::allocator<cv::gapi::fluid::Buffer *>>::_Vector_impl" = type { %"struct.std::_Vector_base<cv::gapi::fluid::Buffer *, std::allocator<cv::gapi::fluid::Buffer *>>::_Vector_impl_data" }
%"struct.std::_Vector_base<cv::gapi::fluid::Buffer *, std::allocator<cv::gapi::fluid::Buffer *>>::_Vector_impl_data" = type { ptr, ptr, ptr }
%"class.__gnu_cxx::__normal_iterator.174" = type { ptr }

; Function Attrs: mustprogress nounwind uwtable
define linkonce_odr hidden noundef nonnull align 8 dereferenceable(8) ptr @_ZNK9__gnu_cxx17__normal_iteratorIPKPN2cv4gapi5fluid6BufferESt6vectorIS5_SaIS5_EEE4baseEv(ptr noundef nonnull align 8 dereferenceable(8) %0) #7 comdat align 2 {
  %2 = alloca ptr, align 8
  store ptr %0, ptr %2, align 8, !tbaa !240
  %3 = load ptr, ptr %2, align 8
  %4 = getelementptr inbounds nuw %"class.__gnu_cxx::__normal_iterator.174", ptr %3, i32 0, i32 0
  ret ptr %4
}

; Function Attrs: mustprogress nounwind uwtable
define linkonce_odr hidden void @_ZN9__gnu_cxx17__normal_iteratorIPKPN2cv4gapi5fluid6BufferESt6vectorIS5_SaIS5_EEEC2ERKS7_(ptr noundef nonnull align 8 dereferenceable(8) %0, ptr noundef nonnull align 8 dereferenceable(8) %1) unnamed_addr #7 comdat align 2 {
  %3 = alloca ptr, align 8
  %4 = alloca ptr, align 8
  store ptr %0, ptr %3, align 8, !tbaa !240
  store ptr %1, ptr %4, align 8, !tbaa !2517
  %5 = load ptr, ptr %3, align 8
  %6 = getelementptr inbounds nuw %"class.__gnu_cxx::__normal_iterator.174", ptr %5, i32 0, i32 0
  %7 = load ptr, ptr %4, align 8, !tbaa !2517
  %8 = load ptr, ptr %7, align 8, !tbaa !235
  store ptr %8, ptr %6, align 8, !tbaa !242
  ret void
}

; Function Attrs: mustprogress nounwind uwtable
define linkonce_odr hidden noundef nonnull align 8 dereferenceable(8) ptr @_ZN9__gnu_cxx17__normal_iteratorIPKPN2cv4gapi5fluid6BufferESt6vectorIS5_SaIS5_EEEppEv(ptr noundef nonnull align 8 dereferenceable(8) %0) #7 comdat align 2 {
  %2 = alloca ptr, align 8
  store ptr %0, ptr %2, align 8, !tbaa !240
  %3 = load ptr, ptr %2, align 8
  %4 = getelementptr inbounds nuw %"class.__gnu_cxx::__normal_iterator.174", ptr %3, i32 0, i32 0
  %5 = load ptr, ptr %4, align 8, !tbaa !242
  %6 = getelementptr inbounds nuw ptr, ptr %5, i32 1
  store ptr %6, ptr %4, align 8, !tbaa !242
  ret ptr %3
}

; Function Attrs: mustprogress nounwind uwtable
define linkonce_odr hidden noundef nonnull align 8 dereferenceable(8) ptr @_ZNK9__gnu_cxx17__normal_iteratorIPKPN2cv4gapi5fluid6BufferESt6vectorIS5_SaIS5_EEEdeEv(ptr noundef nonnull align 8 dereferenceable(8) %0) #7 comdat align 2 {
  %2 = alloca ptr, align 8
  store ptr %0, ptr %2, align 8, !tbaa !240
  %3 = load ptr, ptr %2, align 8
  %4 = getelementptr inbounds nuw %"class.__gnu_cxx::__normal_iterator.174", ptr %3, i32 0, i32 0
  %5 = load ptr, ptr %4, align 8, !tbaa !242
  ret ptr %5
}

; Function Attrs: inlinehint mustprogress nounwind uwtable
define linkonce_odr noundef zeroext i1 @_ZN9__gnu_cxxneIPKPN2cv4gapi5fluid6BufferESt6vectorIS5_SaIS5_EEEEbRKNS_17__normal_iteratorIT_T0_EESG_(ptr noundef nonnull align 8 dereferenceable(8) %0, ptr noundef nonnull align 8 dereferenceable(8) %1) #8 comdat {
  %3 = alloca ptr, align 8
  %4 = alloca ptr, align 8
  store ptr %0, ptr %3, align 8, !tbaa !240
  store ptr %1, ptr %4, align 8, !tbaa !240
  %5 = load ptr, ptr %3, align 8, !tbaa !240
  %6 = call noundef nonnull align 8 dereferenceable(8) ptr @_ZNK9__gnu_cxx17__normal_iteratorIPKPN2cv4gapi5fluid6BufferESt6vectorIS5_SaIS5_EEE4baseEv(ptr noundef nonnull align 8 dereferenceable(8) %5) #3
  %7 = load ptr, ptr %6, align 8, !tbaa !235
  %8 = load ptr, ptr %4, align 8, !tbaa !240
  %9 = call noundef nonnull align 8 dereferenceable(8) ptr @_ZNK9__gnu_cxx17__normal_iteratorIPKPN2cv4gapi5fluid6BufferESt6vectorIS5_SaIS5_EEE4baseEv(ptr noundef nonnull align 8 dereferenceable(8) %8) #3
  %10 = load ptr, ptr %9, align 8, !tbaa !235
  %11 = icmp ne ptr %7, %10
  ret i1 %11
}

; Function Attrs: mustprogress nounwind uwtable
define linkonce_odr hidden ptr @_ZN9__gnu_cxx17__normal_iteratorIPKPN2cv4gapi5fluid6BufferESt6vectorIS5_SaIS5_EEEmmEi(ptr noundef nonnull align 8 dereferenceable(8) %0, i32 noundef %1) #7 comdat align 2 {
  %3 = alloca %"class.__gnu_cxx::__normal_iterator.174", align 8
  %4 = alloca ptr, align 8
  %5 = alloca i32, align 4
  %6 = alloca ptr, align 8
  store ptr %0, ptr %4, align 8, !tbaa !240
  store i32 %1, ptr %5, align 4, !tbaa !146
  %7 = load ptr, ptr %4, align 8
  call void @llvm.lifetime.start.p0(i64 8, ptr %6) #3
  %8 = getelementptr inbounds nuw %"class.__gnu_cxx::__normal_iterator.174", ptr %7, i32 0, i32 0
  %9 = load ptr, ptr %8, align 8, !tbaa !242
  %10 = getelementptr inbounds ptr, ptr %9, i32 -1
  store ptr %10, ptr %8, align 8, !tbaa !242
  store ptr %9, ptr %6, align 8, !tbaa !235
  call void @_ZN9__gnu_cxx17__normal_iteratorIPKPN2cv4gapi5fluid6BufferESt6vectorIS5_SaIS5_EEEC2ERKS7_(ptr noundef nonnull align 8 dereferenceable(8) %3, ptr noundef nonnull align 8 dereferenceable(8) %6) #3
  call void @llvm.lifetime.end.p0(i64 8, ptr %6) #3
  %11 = getelementptr inbounds nuw %"class.__gnu_cxx::__normal_iterator.174", ptr %3, i32 0, i32 0
  %12 = load ptr, ptr %11, align 8
  ret ptr %12
}

; Function Attrs: mustprogress nounwind uwtable
define linkonce_odr hidden ptr @_ZNKSt6vectorIPN2cv4gapi5fluid6BufferESaIS4_EE3endEv(ptr noundef nonnull align 8 dereferenceable(24) %0) #7 comdat align 2 {
  %2 = alloca %"class.__gnu_cxx::__normal_iterator.174", align 8
  %3 = alloca ptr, align 8
  store ptr %0, ptr %3, align 8, !tbaa !106
  %4 = load ptr, ptr %3, align 8
  %5 = getelementptr inbounds nuw %"struct.std::_Vector_base.27", ptr %4, i32 0, i32 0
  %6 = getelementptr inbounds nuw %"struct.std::_Vector_base<cv::gapi::fluid::Buffer *, std::allocator<cv::gapi::fluid::Buffer *>>::_Vector_impl_data", ptr %5, i32 0, i32 1
  call void @_ZN9__gnu_cxx17__normal_iteratorIPKPN2cv4gapi5fluid6BufferESt6vectorIS5_SaIS5_EEEC2ERKS7_(ptr noundef nonnull align 8 dereferenceable(8) %2, ptr noundef nonnull align 8 dereferenceable(8) %6) #3
  %7 = getelementptr inbounds nuw %"class.__gnu_cxx::__normal_iterator.174", ptr %2, i32 0, i32 0
  %8 = load ptr, ptr %7, align 8
  ret ptr %8
}

; Function Attrs: mustprogress nounwind uwtable
define linkonce_odr hidden ptr @_ZNKSt6vectorIPN2cv4gapi5fluid6BufferESaIS4_EE5beginEv(ptr noundef nonnull align 8 dereferenceable(24) %0) #7 comdat align 2 {
  %2 = alloca %"class.__gnu_cxx::__normal_iterator.174", align 8
  %3 = alloca ptr, align 8
  store ptr %0, ptr %3, align 8, !tbaa !106
  %4 = load ptr, ptr %3, align 8
  %5 = getelementptr inbounds nuw %"struct.std::_Vector_base.27", ptr %4, i32 0, i32 0
  %6 = getelementptr inbounds nuw %"struct.std::_Vector_base<cv::gapi::fluid::Buffer *, std::allocator<cv::gapi::fluid::Buffer *>>::_Vector_impl_data", ptr %5, i32 0, i32 0
  call void @_ZN9__gnu_cxx17__normal_iteratorIPKPN2cv4gapi5fluid6BufferESt6vectorIS5_SaIS5_EEEC2ERKS7_(ptr noundef nonnull align 8 dereferenceable(8) %2, ptr noundef nonnull align 8 dereferenceable(8) %6) #3
  %7 = getelementptr inbounds nuw %"class.__gnu_cxx::__normal_iterator.174", ptr %2, i32 0, i32 0
  %8 = load ptr, ptr %7, align 8
  ret ptr %8
}

; Function Attrs: mustprogress nounwind uwtable
define linkonce_odr hidden void @_ZN2cv4util23suppress_unused_warningIbEEvRKT_(ptr noundef nonnull align 1 dereferenceable(1) %0) #7 comdat {
  %2 = alloca ptr, align 8
  store ptr %0, ptr %2, align 8, !tbaa !238
  ret void
}

; Function Attrs: mustprogress uwtable
define hidden noundef zeroext i1 @_ZNK2cv5gimpl10FluidAgent8canWriteEv(ptr noundef nonnull align 8 dereferenceable(360) %0) #4 align 2 {
  %2 = alloca i1, align 1
  %3 = alloca ptr, align 8
  %4 = alloca i8, align 1
  %5 = alloca %"class.__gnu_cxx::__normal_iterator.174", align 8
  %6 = alloca %"class.__gnu_cxx::__normal_iterator.174", align 8
  %7 = alloca %"class.__gnu_cxx::__normal_iterator.174", align 8
  %8 = alloca %"class.__gnu_cxx::__normal_iterator.174", align 8
  %9 = alloca i32, align 4
  store ptr %0, ptr %3, align 8, !tbaa !19
  %10 = load ptr, ptr %3, align 8
  call void @llvm.lifetime.start.p0(i64 1, ptr %4) #3
  store i8 0, ptr %4, align 1, !tbaa !123
  call void @_ZN2cv4util23suppress_unused_warningIbEEvRKT_(ptr noundef nonnull align 1 dereferenceable(1) %4)
  call void @llvm.lifetime.end.p0(i64 1, ptr %4) #3
  call void @llvm.lifetime.start.p0(i64 8, ptr %5) #3
  %11 = getelementptr inbounds nuw %"struct.cv::gimpl::FluidAgent", ptr %10, i32 0, i32 8
  %12 = call ptr @_ZNKSt6vectorIPN2cv4gapi5fluid6BufferESaIS4_EE5beginEv(ptr noundef nonnull align 8 dereferenceable(24) %11) #3
  %13 = getelementptr inbounds nuw %"class.__gnu_cxx::__normal_iterator.174", ptr %5, i32 0, i32 0
  store ptr %12, ptr %13, align 8
  call void @llvm.lifetime.start.p0(i64 8, ptr %6) #3
  %14 = getelementptr inbounds nuw %"struct.cv::gimpl::FluidAgent", ptr %10, i32 0, i32 8
  %15 = call ptr @_ZNKSt6vectorIPN2cv4gapi5fluid6BufferESaIS4_EE3endEv(ptr noundef nonnull align 8 dereferenceable(24) %14) #3
  %16 = getelementptr inbounds nuw %"class.__gnu_cxx::__normal_iterator.174", ptr %6, i32 0, i32 0
  store ptr %15, ptr %16, align 8
  %17 = getelementptr inbounds nuw %"struct.cv::gimpl::FluidAgent", ptr %10, i32 0, i32 1
  %18 = getelementptr inbounds nuw %"class.cv::GFluidKernel", ptr %17, i32 0, i32 2
  %19 = load i8, ptr %18, align 8, !tbaa !231, !range !232, !noundef !233
  %20 = trunc i8 %19 to i1
  br i1 %20, label %21, label %24

21:                                               ; preds = %1
  %22 = call ptr @_ZN9__gnu_cxx17__normal_iteratorIPKPN2cv4gapi5fluid6BufferESt6vectorIS5_SaIS5_EEEmmEi(ptr noundef nonnull align 8 dereferenceable(8) %6, i32 noundef 0) #3
  %23 = getelementptr inbounds nuw %"class.__gnu_cxx::__normal_iterator.174", ptr %7, i32 0, i32 0
  store ptr %22, ptr %23, align 8
  br label %24

24:                                               ; preds = %21, %1
  call void @llvm.lifetime.start.p0(i64 8, ptr %8) #3
  call void @llvm.memcpy.p0.p0.i64(ptr align 8 %8, ptr align 8 %5, i64 8, i1 false), !tbaa.struct !234
  br label %25

25:                                               ; preds = %35, %24
  %26 = call noundef zeroext i1 @_ZN9__gnu_cxxneIPKPN2cv4gapi5fluid6BufferESt6vectorIS5_SaIS5_EEEEbRKNS_17__normal_iteratorIT_T0_EESG_(ptr noundef nonnull align 8 dereferenceable(8) %8, ptr noundef nonnull align 8 dereferenceable(8) %6) #3
  br i1 %26, label %28, label %27

27:                                               ; preds = %25
  store i32 2, ptr %9, align 4
  br label %37

28:                                               ; preds = %25
  %29 = call noundef nonnull align 8 dereferenceable(8) ptr @_ZNK9__gnu_cxx17__normal_iteratorIPKPN2cv4gapi5fluid6BufferESt6vectorIS5_SaIS5_EEEdeEv(ptr noundef nonnull align 8 dereferenceable(8) %8) #3
  %30 = load ptr, ptr %29, align 8, !tbaa !183
  %31 = call noundef nonnull align 8 dereferenceable(188) ptr @_ZN2cv4gapi5fluid6Buffer4privEv(ptr noundef nonnull align 8 dereferenceable(16) %30)
  %32 = call noundef zeroext i1 @_ZNK2cv4gapi5fluid6Buffer4Priv4fullEv(ptr noundef nonnull align 8 dereferenceable(188) %31)
  br i1 %32, label %33, label %34

33:                                               ; preds = %28
  store i1 false, ptr %2, align 1
  store i32 1, ptr %9, align 4
  br label %37

34:                                               ; preds = %28
  br label %35

35:                                               ; preds = %34
  %36 = call noundef nonnull align 8 dereferenceable(8) ptr @_ZN9__gnu_cxx17__normal_iteratorIPKPN2cv4gapi5fluid6BufferESt6vectorIS5_SaIS5_EEEppEv(ptr noundef nonnull align 8 dereferenceable(8) %8) #3
  br label %25, !llvm.loop !236

37:                                               ; preds = %33, %27
  call void @llvm.lifetime.end.p0(i64 8, ptr %8) #3
  %38 = load i32, ptr %9, align 4
  switch i32 %38, label %40 [
    i32 2, label %39
  ]

39:                                               ; preds = %37
  store i1 true, ptr %2, align 1
  store i32 1, ptr %9, align 4
  br label %40

40:                                               ; preds = %39, %37
  call void @llvm.lifetime.end.p0(i64 8, ptr %6) #3
  call void @llvm.lifetime.end.p0(i64 8, ptr %5) #3
  %41 = load i1, ptr %2, align 1
  ret i1 %41
}