; Function Attrs: mustprogress uwtable
define hidden noundef zeroext i1 @_ZNK2cv5gimpl10FluidAgent8canWriteEv(ptr noundef nonnull readonly align 8 captures(none) dereferenceable(360) %0) local_unnamed_addr #3 align 2 {
  %2 = getelementptr inbounds nuw i8, ptr %0, i64 328
  %3 = load ptr, ptr %2, align 8, !tbaa !227
  %4 = getelementptr inbounds nuw i8, ptr %0, i64 336
  %5 = load ptr, ptr %4, align 8, !tbaa !227
  %6 = getelementptr inbounds nuw i8, ptr %0, i64 16
  %7 = load i8, ptr %6, align 8, !tbaa !228, !range !103, !noundef !53
  %8 = trunc nuw i8 %7 to i1
  %spec.select.idx = select i1 %8, i64 -8, i64 0
  %spec.select = getelementptr inbounds i8, ptr %5, i64 %spec.select.idx
  %.not8 = icmp eq ptr %3, %spec.select
  br i1 %.not8, label %.critedge, label %.lr.ph

.lr.ph:                                           ; preds = %1, %.lr.ph
  %.sroa.0.09 = phi ptr [ %12, %.lr.ph ], [ %3, %1 ]
  %9 = load ptr, ptr %.sroa.0.09, align 8, !tbaa !190
  %10 = tail call noundef nonnull align 8 dereferenceable(188) ptr @_ZN2cv4gapi5fluid6Buffer4privEv(ptr noundef nonnull align 8 dereferenceable(16) %9)
  %11 = tail call noundef zeroext i1 @_ZNK2cv4gapi5fluid6Buffer4Priv4fullEv(ptr noundef nonnull align 8 dereferenceable(188) %10)
  %12 = getelementptr inbounds nuw i8, ptr %.sroa.0.09, i64 8
  %.not = icmp eq ptr %12, %spec.select
  %or.cond = select i1 %11, i1 true, i1 %.not
  br i1 %or.cond, label %.critedge.loopexit, label %.lr.ph, !llvm.loop !229

.critedge.loopexit:                               ; preds = %.lr.ph
  %.not.lcssa.ph = xor i1 %11, true
  br label %.critedge

.critedge:                                        ; preds = %.critedge.loopexit, %1
  %.not.lcssa = phi i1 [ true, %1 ], [ %.not.lcssa.ph, %.critedge.loopexit ]
  ret i1 %.not.lcssa
}